; Function Attrs: mustprogress nounwind uwtable
define internal fastcc void @"_ZN8facebook5velox17DeltaCpuWallTimerIZNS0_12VectorLoader4loadERKNS0_17SelectivityVectorEPNS0_9ValueHookEiPSt10shared_ptrINS0_10BaseVectorEEE3$_0ED2Ev"(ptr nocapture noundef nonnull readonly align 8 dereferenceable(17) %this) unnamed_addr #2 align 2 personality ptr @__gxx_personality_v0 {
invoke.cont7:
  %deltaTiming = alloca %"struct.facebook::velox::CpuWallTiming", align 8
  store i64 1, ptr %deltaTiming, align 8
  %wallNanos = getelementptr inbounds i8, ptr %deltaTiming, i64 8
  %call = tail call i64 @_ZNSt6chrono3_V212steady_clock3nowEv() #21
  %wallTimeStart_ = getelementptr inbounds i8, ptr %this, i64 8
  %retval.sroa.0.0.copyload.i1.i = load i64, ptr %wallTimeStart_, align 8
  %sub.i.i = sub nsw i64 %call, %retval.sroa.0.0.copyload.i1.i
  store i64 %sub.i.i, ptr %wallNanos, align 8
  %call12 = invoke noundef i64 @_ZN8facebook5velox7process14threadCpuNanosEv()
          to label %invoke.cont11 unwind label %terminate.lpad

invoke.cont11:                                    ; preds = %invoke.cont7
  %cpuNanos = getelementptr inbounds i8, ptr %deltaTiming, i64 16
  %0 = load i64, ptr %this, align 8
  %sub = sub i64 %call12, %0
  store i64 %sub, ptr %cpuNanos, align 8
  invoke fastcc void @_ZN8facebook5velox12_GLOBAL__N_113writeIOTimingERKNS0_13CpuWallTimingE(ptr noundef nonnull align 8 dereferenceable(24) %deltaTiming)
          to label %invoke.cont13 unwind label %terminate.lpad

invoke.cont13:                                    ; preds = %invoke.cont11
  ret void

terminate.lpad:                                   ; preds = %invoke.cont11, %invoke.cont7
  %1 = landingpad { ptr, i32 }
          catch ptr null
  %2 = extractvalue { ptr, i32 } %1, 0
  tail call void @__clang_call_terminate(ptr %2) #22
  unreachable
}